; Function Attrs: mustprogress uwtable
define hidden void @_ZN7nanogui6SliderC2EPNS_6WidgetE(ptr noundef nonnull align 8 dereferenceable(240) %0, ptr noundef %1) unnamed_addr #0 align 2 personality ptr @__gxx_personality_v0 {
_ZN7nanogui5ArrayIfLm4EEC2Ef.exit.i.i:
  %2 = alloca %"struct.nanogui::Array.4", align 8
  %3 = alloca %"struct.nanogui::Array.4", align 16
  %4 = alloca %"struct.nanogui::Array.4", align 4
  tail call void @_ZN7nanogui6WidgetC2EPS0_(ptr noundef nonnull align 8 dereferenceable(140) %0, ptr noundef %1)
  store ptr getelementptr inbounds ({ [17 x ptr] }, ptr @_ZTVN7nanogui6SliderE, i64 0, i32 0, i64 2), ptr %0, align 8
  %5 = getelementptr inbounds i8, ptr %0, i64 140
  %6 = getelementptr inbounds i8, ptr %0, i64 212
  tail call void @llvm.memset.p0.i64(ptr noundef nonnull align 4 dereferenceable(72) %5, i8 0, i64 72, i1 false)
  store <2 x float> <float 1.000000e+00, float 0.000000e+00>, ptr %6, align 4
  %7 = getelementptr inbounds i8, ptr %0, i64 220
  store float 0.000000e+00, ptr %7, align 4
  call void @llvm.lifetime.start.p0(i64 16, ptr nonnull %3)
  call void @llvm.lifetime.start.p0(i64 16, ptr nonnull %4)
  store <4 x float> <float 2.550000e+02, float 8.000000e+01, float 8.000000e+01, float 7.000000e+01>, ptr %3, align 16
  br label %8

8:                                                ; preds = %8, %_ZN7nanogui5ArrayIfLm4EEC2Ef.exit.i.i
  %.04.i.i = phi i64 [ 0, %_ZN7nanogui5ArrayIfLm4EEC2Ef.exit.i.i ], [ %10, %8 ]
  %9 = getelementptr inbounds [4 x float], ptr %4, i64 0, i64 %.04.i.i
  store float 2.550000e+02, ptr %9, align 4
  %10 = add nuw nsw i64 %.04.i.i, 1
  %exitcond.not.i.i = icmp eq i64 %10, 4
  br i1 %exitcond.not.i.i, label %_ZN7nanogui5ArrayIfLm4EEC2Ef.exit.i, label %8, !llvm.loop !5

_ZN7nanogui5ArrayIfLm4EEC2Ef.exit.i:              ; preds = %8
  call void @llvm.lifetime.start.p0(i64 16, ptr nonnull %2)
  br label %11

11:                                               ; preds = %11, %_ZN7nanogui5ArrayIfLm4EEC2Ef.exit.i
  %.06.i.i = phi i64 [ 0, %_ZN7nanogui5ArrayIfLm4EEC2Ef.exit.i ], [ %18, %11 ]
  %12 = getelementptr inbounds [4 x float], ptr %3, i64 0, i64 %.06.i.i
  %13 = load float, ptr %12, align 4
  %14 = getelementptr inbounds [4 x float], ptr %4, i64 0, i64 %.06.i.i
  %15 = load float, ptr %14, align 4
  %16 = fdiv float %13, %15
  %17 = getelementptr inbounds [4 x float], ptr %2, i64 0, i64 %.06.i.i
  store float %16, ptr %17, align 4
  %18 = add nuw nsw i64 %.06.i.i, 1
  %exitcond.not.i4.i = icmp eq i64 %18, 4
  br i1 %exitcond.not.i4.i, label %19, label %11, !llvm.loop !7

19:                                               ; preds = %11
  %.sroa.2.0..sroa_idx.i.i = getelementptr inbounds i8, ptr %0, i64 232
  %20 = getelementptr inbounds i8, ptr %0, i64 224
  %.fca.0.load.i.i = load <2 x float>, ptr %2, align 8
  %.fca.1.gep.i.i = getelementptr inbounds i8, ptr %2, i64 8
  %.fca.1.load.i.i = load <2 x float>, ptr %.fca.1.gep.i.i, align 8
  call void @llvm.lifetime.end.p0(i64 16, ptr nonnull %2)
  call void @llvm.lifetime.end.p0(i64 16, ptr nonnull %3)
  call void @llvm.lifetime.end.p0(i64 16, ptr nonnull %4)
  store <2 x float> %.fca.0.load.i.i, ptr %20, align 8
  store <2 x float> %.fca.1.load.i.i, ptr %.sroa.2.0..sroa_idx.i.i, align 8
  ret void
}